; Function Attrs: mustprogress nounwind uwtable
define dso_local noundef ptr @_ZN4llvm17JumpThreadingPass14getOrCreateBFIEb(ptr noundef nonnull align 8 dereferenceable(296) %0, i1 noundef zeroext %1) local_unnamed_addr #0 align 2 {
  %3 = getelementptr inbounds nuw i8, ptr %0, i64 56
  %4 = getelementptr inbounds i8, ptr %0, i64 64
  %5 = load i8, ptr %4, align 8
  %6 = trunc i8 %5 to i1
  br i1 %6, label %._crit_edge.i, label %7

._crit_edge.i:                                    ; preds = %2
  %.pre.i = load ptr, ptr %3, align 8
  br label %_ZN4llvm17JumpThreadingPass6getBFIEv.exit

7:                                                ; preds = %2
  %8 = getelementptr inbounds nuw i8, ptr %0, i64 8
  %9 = load ptr, ptr %8, align 8
  %10 = load ptr, ptr %0, align 8
  %11 = tail call noundef ptr @_ZNK4llvm15AnalysisManagerINS_8FunctionEJEE19getCachedResultImplEPNS_11AnalysisKeyERS1_(ptr noundef nonnull align 8 dereferenceable(72) %9, ptr noundef nonnull @_ZN4llvm22BlockFrequencyAnalysis3KeyE, ptr noundef nonnull align 8 dereferenceable(136) %10) #19
  %.not.i.i = icmp eq ptr %11, null
  %12 = getelementptr inbounds nuw i8, ptr %11, i64 8
  %.0.i.i = select i1 %.not.i.i, ptr null, ptr %12
  store ptr %.0.i.i, ptr %3, align 8
  store i8 1, ptr %4, align 8
  br label %_ZN4llvm17JumpThreadingPass6getBFIEv.exit

_ZN4llvm17JumpThreadingPass6getBFIEv.exit:        ; preds = %._crit_edge.i, %7
  %13 = phi ptr [ %.pre.i, %._crit_edge.i ], [ %.0.i.i, %7 ]
  %.not = icmp eq ptr %13, null
  %brmerge.not = and i1 %.not, %1
  br i1 %brmerge.not, label %14, label %16

14:                                               ; preds = %_ZN4llvm17JumpThreadingPass6getBFIEv.exit
  %15 = tail call noundef ptr @_ZN4llvm17JumpThreadingPass19runExternalAnalysisINS_22BlockFrequencyAnalysisEEEPNT_6ResultEv(ptr noundef nonnull align 8 dereferenceable(296) %0)
  store ptr %15, ptr %3, align 8
  store i8 1, ptr %4, align 8
  br label %16

16:                                               ; preds = %_ZN4llvm17JumpThreadingPass6getBFIEv.exit, %14
  %.0 = phi ptr [ %13, %_ZN4llvm17JumpThreadingPass6getBFIEv.exit ], [ %15, %14 ]
  ret ptr %.0
}